; Function Attrs: mustprogress uwtable
define noundef zeroext i1 @_ZN32pxrInternal_v0_24__pxrReserved__18UsdNamespaceEditor12ReparentPrimERKNS_7UsdPrimES3_(ptr noundef nonnull align 8 dereferenceable(200) %0, ptr noundef nonnull align 8 dereferenceable(32) %1, ptr noundef nonnull align 8 dereferenceable(32) %2) local_unnamed_addr #0 align 2 personality ptr @__gxx_personality_v0 {
  %4 = alloca %"class.pxrInternal_v0_24__pxrReserved__::SdfPath", align 4
  %5 = getelementptr inbounds nuw i8, ptr %1, i64 16
  %6 = load i32, ptr %5, align 8
  %.not.i.i = icmp eq i32 %6, 0
  br i1 %.not.i.i, label %7, label %_ZNK32pxrInternal_v0_24__pxrReserved__9UsdObject11GetPrimPathEv.exit

7:                                                ; preds = %3
  %8 = getelementptr inbounds nuw i8, ptr %1, i64 8
  %9 = load ptr, ptr %8, align 8
  %.not.i = icmp eq ptr %9, null
  br i1 %.not.i, label %12, label %10

10:                                               ; preds = %7
  %11 = getelementptr inbounds nuw i8, ptr %9, i64 16
  br label %_ZNK32pxrInternal_v0_24__pxrReserved__9UsdObject11GetPrimPathEv.exit

12:                                               ; preds = %7
  %13 = tail call noundef nonnull align 4 dereferenceable(8) ptr @_ZN32pxrInternal_v0_24__pxrReserved__7SdfPath9EmptyPathEv()
  br label %_ZNK32pxrInternal_v0_24__pxrReserved__9UsdObject11GetPrimPathEv.exit

_ZNK32pxrInternal_v0_24__pxrReserved__9UsdObject11GetPrimPathEv.exit: ; preds = %3, %10, %12
  %.0.i = phi ptr [ %11, %10 ], [ %13, %12 ], [ %5, %3 ]
  %14 = getelementptr inbounds nuw i8, ptr %2, i64 16
  %15 = load i32, ptr %14, align 8
  %.not.i.i5 = icmp eq i32 %15, 0
  br i1 %.not.i.i5, label %16, label %_ZNK32pxrInternal_v0_24__pxrReserved__9UsdObject11GetPrimPathEv.exit8

16:                                               ; preds = %_ZNK32pxrInternal_v0_24__pxrReserved__9UsdObject11GetPrimPathEv.exit
  %17 = getelementptr inbounds nuw i8, ptr %2, i64 8
  %18 = load ptr, ptr %17, align 8
  %.not.i7 = icmp eq ptr %18, null
  br i1 %.not.i7, label %21, label %19

19:                                               ; preds = %16
  %20 = getelementptr inbounds nuw i8, ptr %18, i64 16
  br label %_ZNK32pxrInternal_v0_24__pxrReserved__9UsdObject11GetPrimPathEv.exit8

21:                                               ; preds = %16
  %22 = tail call noundef nonnull align 4 dereferenceable(8) ptr @_ZN32pxrInternal_v0_24__pxrReserved__7SdfPath9EmptyPathEv()
  br label %_ZNK32pxrInternal_v0_24__pxrReserved__9UsdObject11GetPrimPathEv.exit8

_ZNK32pxrInternal_v0_24__pxrReserved__9UsdObject11GetPrimPathEv.exit8: ; preds = %_ZNK32pxrInternal_v0_24__pxrReserved__9UsdObject11GetPrimPathEv.exit, %19, %21
  %.0.i6 = phi ptr [ %20, %19 ], [ %22, %21 ], [ %14, %_ZNK32pxrInternal_v0_24__pxrReserved__9UsdObject11GetPrimPathEv.exit ]
  %23 = load i32, ptr %1, align 8
  %24 = icmp eq i32 %23, 1
  br i1 %24, label %25, label %35

25:                                               ; preds = %_ZNK32pxrInternal_v0_24__pxrReserved__9UsdObject11GetPrimPathEv.exit8
  %26 = load i32, ptr %5, align 8
  %.not.i.i.i = icmp eq i32 %26, 0
  br i1 %.not.i.i.i, label %27, label %_ZNK32pxrInternal_v0_24__pxrReserved__9UsdObject11GetPrimPathEv.exit.i

27:                                               ; preds = %25
  %28 = getelementptr inbounds nuw i8, ptr %1, i64 8
  %29 = load ptr, ptr %28, align 8
  %.not.i.i9 = icmp eq ptr %29, null
  br i1 %.not.i.i9, label %32, label %30

30:                                               ; preds = %27
  %31 = getelementptr inbounds nuw i8, ptr %29, i64 16
  br label %_ZNK32pxrInternal_v0_24__pxrReserved__9UsdObject11GetPrimPathEv.exit.i

32:                                               ; preds = %27
  %33 = tail call noundef nonnull align 4 dereferenceable(8) ptr @_ZN32pxrInternal_v0_24__pxrReserved__7SdfPath9EmptyPathEv()
  br label %_ZNK32pxrInternal_v0_24__pxrReserved__9UsdObject11GetPrimPathEv.exit.i

_ZNK32pxrInternal_v0_24__pxrReserved__9UsdObject11GetPrimPathEv.exit.i: ; preds = %32, %30, %25
  %.0.i.i = phi ptr [ %31, %30 ], [ %33, %32 ], [ %5, %25 ]
  %34 = tail call noundef nonnull align 8 dereferenceable(8) ptr @_ZNK32pxrInternal_v0_24__pxrReserved__7SdfPath12GetNameTokenEv(ptr noundef nonnull align 4 dereferenceable(8) %.0.i.i)
  br label %_ZNK32pxrInternal_v0_24__pxrReserved__9UsdObject7GetNameEv.exit

35:                                               ; preds = %_ZNK32pxrInternal_v0_24__pxrReserved__9UsdObject11GetPrimPathEv.exit8
  %36 = getelementptr inbounds nuw i8, ptr %1, i64 24
  br label %_ZNK32pxrInternal_v0_24__pxrReserved__9UsdObject7GetNameEv.exit

_ZNK32pxrInternal_v0_24__pxrReserved__9UsdObject7GetNameEv.exit: ; preds = %_ZNK32pxrInternal_v0_24__pxrReserved__9UsdObject11GetPrimPathEv.exit.i, %35
  %37 = phi ptr [ %34, %_ZNK32pxrInternal_v0_24__pxrReserved__9UsdObject11GetPrimPathEv.exit.i ], [ %36, %35 ]
  call void @_ZNK32pxrInternal_v0_24__pxrReserved__7SdfPath11AppendChildERKNS_7TfTokenE(ptr dead_on_unwind nonnull writable sret(%"class.pxrInternal_v0_24__pxrReserved__::SdfPath") align 4 %4, ptr noundef nonnull align 4 dereferenceable(8) %.0.i6, ptr noundef nonnull align 8 dereferenceable(8) %37)
  %38 = invoke noundef zeroext i1 @_ZN32pxrInternal_v0_24__pxrReserved__18UsdNamespaceEditor12_AddPrimMoveERKNS_7SdfPathES3_(ptr noundef nonnull align 8 dereferenceable(200) %0, ptr noundef nonnull align 4 dereferenceable(8) %.0.i, ptr noundef nonnull align 4 dereferenceable(8) %4)
          to label %39 unwind label %58

39:                                               ; preds = %_ZNK32pxrInternal_v0_24__pxrReserved__9UsdObject7GetNameEv.exit
  %40 = load i32, ptr %4, align 4
  %.not.i.i10 = icmp eq i32 %40, 0
  br i1 %.not.i.i10, label %_ZN32pxrInternal_v0_24__pxrReserved__7SdfPathD2Ev.exit, label %41

41:                                               ; preds = %39
  %42 = and i32 %40, 255
  %43 = lshr i32 %40, 8
  %44 = zext nneg i32 %42 to i64
  %45 = getelementptr inbounds nuw [257 x ptr], ptr @_ZN32pxrInternal_v0_24__pxrReserved__8Sdf_PoolINS_15Sdf_PathPrimTagELj24ELj8ELj16384EE13_regionStartsE, i64 0, i64 %44
  %46 = load ptr, ptr %45, align 8
  %47 = mul nuw nsw i32 %43, 24
  %48 = zext nneg i32 %47 to i64
  %49 = getelementptr inbounds nuw i8, ptr %46, i64 %48
  %50 = getelementptr inbounds nuw i8, ptr %49, i64 8
  %51 = atomicrmw sub ptr %50, i32 1 seq_cst, align 4
  %52 = and i32 %51, 2147483647
  %53 = icmp eq i32 %52, 1
  br i1 %53, label %54, label %_ZN32pxrInternal_v0_24__pxrReserved__7SdfPathD2Ev.exit

54:                                               ; preds = %41
  invoke void @_ZNK32pxrInternal_v0_24__pxrReserved__12Sdf_PathNode8_DestroyEv(ptr noundef nonnull align 8 dereferenceable(16) %49)
          to label %_ZN32pxrInternal_v0_24__pxrReserved__7SdfPathD2Ev.exit unwind label %55

55:                                               ; preds = %54
  %56 = landingpad { ptr, i32 }
          catch ptr null
  %57 = extractvalue { ptr, i32 } %56, 0
  call void @__clang_call_terminate(ptr %57) #23
  unreachable

_ZN32pxrInternal_v0_24__pxrReserved__7SdfPathD2Ev.exit: ; preds = %39, %41, %54
  ret i1 %38

58:                                               ; preds = %_ZNK32pxrInternal_v0_24__pxrReserved__9UsdObject7GetNameEv.exit
  %59 = landingpad { ptr, i32 }
          cleanup
  call void @_ZN32pxrInternal_v0_24__pxrReserved__7SdfPathD2Ev(ptr noundef nonnull align 4 dereferenceable(8) %4) #13
  resume { ptr, i32 } %59
}